(dp1
S'f_Demequinaceae'
p2
I311
sS'g_Sutterella'
p3
I88
sS'g_Nitrosomonas'
p4
I110
sS'g_Modestobacter'
p5
I304
sS'g_Amaricoccus'
p6
I213
sS'o_Rhodospirillales'
p7
I186
sS'g_Terribacillus'
p8
I14
sS'g_Cellulosimicrobium'
p9
I281
sS'g_Oceanibaculum'
p10
I201
sS'g_Alpinimonas'
p11
I331
sS'g_Brevibacillus'
p12
I4
sS'g_Simonsiella'
p13
I120
sS'g_Marinicauda'
p14
I248
sS'g_Curvibacter'
p15
I65
sS'g_Pandoraea'
p16
I101
sS'g_Planococcus'
p17
I30
sS'f_Methylocystaceae'
p18
I142
sS'g_Collimonas'
p19
I58
sS'o_Caulobacterales'
p20
I241
sS'g_Demequina'
p21
I312
sS'g_Parvularcula'
p22
I172
sS'g_Pseudolabrys'
p23
I139
sS'g_Zimmermannella'
p24
I327
sS'g_Thalassobacter'
p25
I233
sS'g_Microbacterium'
p26
I335
sS'g_Curtobacterium'
p27
I328
sS'g_Clavibacter'
p28
I333
sS'g_Rhizobium'
p29
I137
sS'f_Cohaesibacteraceae'
p30
I133
sS'f_Bradyrhizobiaceae'
p31
I151
sS'f_Propionibacteriaceae'
p32
I289
sS'g_Ruegeria'
p33
I236
sS'g_Octadecabacter'
p34
I221
sS'g_Nitratireductor'
p35
I146
sS'g_Exiguobacterium'
p36
I25
sS'f_Alcaligenaceae'
p37
I76
sS'f_Iamiaceae'
p38
I255
sS'g_Verminephrobacter'
p39
I74
sS'g_Haloactinopolyspora'
p40
I287
sS'g_Flindersiella'
p41
I273
sS'f_Bartonellaceae'
p42
I159
sS'g_Brachybacterium'
p43
I324
sS'g_Achromobacter'
p44
I86
sS'g_Mesorhizobium'
p45
I147
sS'g_Aeribacillus'
p46
I17
sS'f_Nakamurellaceae'
p47
I349
sS'g_Williamsia'
p48
I266
sS'o_Parvularculales'
p49
I170
sS'g_Salinispora'
p50
I344
sS'g_Planomicrobium'
p51
I33
sS'o_Actinomycetales'
p52
I259
sS'p_Actinobacteria'
p53
I250
sS'g_Comamonas'
p54
I68
sS'g_Ketogulonicigenium'
p55
I231
sS'g_Silicibacter'
p56
I225
sS'g_Paracoccus'
p57
I216
sS'g_Agrococcus'
p58
I329
sS'g_Pusillimonas'
p59
I79
sS'g_Janibacter'
p60
I320
sS'g_Bacillus'
p61
I20
sS'o_Sphingomonadales'
p62
I173
sS'g_Lutibaculum'
p63
I162
sS'g_Cupriavidus'
p64
I102
sS'o_Nitrosomonadales'
p65
I108
sS'g_Bauldia'
p66
I158
sS'g_Tumebacillus'
p67
I41
sS'g_Parapusillimonas'
p68
I82
sS'g_Knoellia'
p69
I318
sS'g_Acidovorax'
p70
I63
sS'g_Dietzia'
p71
I352
sS'g_Altererythrobacter'
p72
I177
sS'g_Chryseomicrobium'
p73
I31
sS'g_Planococcaceae_incertae_sedis'
p74
I38
sS'g_Sporosarcina'
p75
I32
sS'o_Rhodobacterales'
p76
I210
sS'g_Pelagibius'
p77
I198
sS'f_Cellulomonadaceae'
p78
I274
sS'g_Thermovum'
p79
I148
sS'g_Roseateles'
p80
I61
sS'g_Anaplasma'
p81
I207
sS'g_Paenisporosarcina'
p82
I35
sS'g_Rhodococcus'
p83
I267
sS'g_Kingella'
p84
I115
sS'g_Sandaracinobacter'
p85
I179
sS'g_Caenimonas'
p86
I75
sS'g_Limnobacter'
p87
I100
sS'g_Verrucosispora'
p88
I343
sS'g_Ornithinimicrobium'
p89
I322
sS'g_Nisaea'
p90
I203
sS'g_Rhodovulum'
p91
I226
sS'g_Alysiella'
p92
I118
sS'g_Porphyrobacter'
p93
I176
sS'g_Phenylobacterium'
p94
I243
sS'g_Extensimonas'
p95
I72
sS'g_Limimonas'
p96
I202
sS'g_Pseudochrobactrum'
p97
I128
sS'g_Geomicrobium'
p98
I8
sS'f_Listeriaceae'
p99
I21
sS'g_Bordetella'
p100
I84
sS'f_Sanguibacteraceae'
p101
I307
sS'g_Marmoricola'
p102
I271
sS'g_Nesterenkonia'
p103
I297
sS'g_Tsukamurella'
p104
I310
sS'g_Rubrimonas'
p105
I227
sS'g_Lysinibacillus'
p106
I34
sS'g_Albidiferax'
p107
I66
sS'g_Brucella'
p108
I129
sS'g_Albidovulum'
p109
I218
sS'g_Geobacillus'
p110
I18
sS'g_Halobacillus'
p111
I13
sS'g_Burkholderia'
p112
I97
sS'g_Brevundimonas'
p113
I245
sS'f_Nitrosomonadaceae'
p114
I109
sS'g_Pelomonas'
p115
I69
sS'g_Turicella'
p116
I277
sS'f_Micromonosporaceae'
p117
I342
sS'o_Bacillales'
p118
I2
sS'g_Luedemannella'
p119
I347
sS'f_Nocardiaceae'
p120
I264
sS'g_Vogesella'
p121
I113
sS'g_Propionibacterium'
p122
I293
sS'g_Nautella'
p123
I232
sS'f_Magnetococcaceae'
p124
I239
sS'o_Acidimicrobiales'
p125
I252
sS'g_Paenibacillus'
p126
I6
sS'g_Arcanobacterium'
p127
I340
sS'p_Firmicutes'
p128
I0
sS'g_Nocardia'
p129
I268
sS'g_Conchiformibius'
p130
I117
sS'f_Acetobacteraceae'
p131
I187
sS'f_Oxalobacteraceae'
p132
I49
sS'g_Sphingomonas'
p133
I185
sS'g_Anoxybacillus'
p134
I19
sS'g_Delftia'
p135
I73
sS'g_Cohaesibacter'
p136
I134
sS'g_Leifsonia'
p137
I336
sS'c_Betaproteobacteria'
p138
I47
sS'g_Inquilinus'
p139
I199
sS'f_Hyphomonadaceae'
p140
I246
sS'f_Micrococcaceae'
p141
I296
sS'g_Bradyrhizobium'
p142
I152
sS'g_Asaia'
p143
I193
sS'g_Iamia'
p144
I256
sS'c_Bacilli'
p145
I1
sS'g_Herminiimonas'
p146
I54
sS'f_Phyllobacteriaceae'
p147
I145
sS'g_Staphylococcus'
p148
I43
sS'g_Roseovarius'
p149
I215
sS'g_Neorickettsia'
p150
I206
sS'g_Paucisalibacillus'
p151
I10
sS'g_Hydrogenophaga'
p152
I67
sS'g_Castellaniella'
p153
I81
sS'g_Stappia'
p154
I219
sS'f_Corynebacteriaceae'
p155
I276
sS'g_Humitalea'
p156
I190
sS'g_Acetobacter'
p157
I191
sS'g_Pelagibaca'
p158
I222
sS'g_Blastomonas'
p159
I182
sS'f_Geodermatophilaceae'
p160
I302
sS'g_Actinoplanes'
p161
I348
sS'o_Neisseriales'
p162
I111
sS'g_Angustibacter'
p163
I316
sS'g_Gemella'
p164
I27
sS'g_Haematobacter'
p165
I234
sS'g_Litorimonas'
p166
I249
sS'g_Sphingopyxis'
p167
I180
sS'g_Xylanimonas'
p168
I283
sS'g_Rothia'
p169
I301
sS'g_Arthrobacter'
p170
I299
sS'g_Limnohabitans'
p171
I71
sS'g_Polynucleobacter'
p172
I99
sS'f_Parvularculaceae'
p173
I171
sS'g_Litoreibacter'
p174
I214
sS'g_Brochothrix'
p175
I23
sS'f_Dermabacteraceae'
p176
I323
sS'o_Methylophilales'
p177
I103
sS'g_Rhodoplanes'
p178
I167
sS'g_Sanguibacter'
p179
I308
sS'g_Gordonia'
p180
I265
sS'p_Proteobacteria'
p181
I46
sS'f_Neisseriaceae'
p182
I112
sS'g_Chromobacterium'
p183
I114
sS'g_Candidimonas'
p184
I83
sS'f_Hydrogenophilaceae'
p185
I122
sS'g_Methylotenera'
p186
I106
sS'f_Jiangellaceae'
p187
I286
sS'g_Hydrogenophilus'
p188
I124
sS'f_Planococcaceae'
p189
I28
sS'g_Thermobacillus'
p190
I5
sS'g_Magnetospirillum'
p191
I196
sS'g_Dermabacter'
p192
I325
sS'g_Xylophilus'
p193
I92
sS'g_Intrasporangium'
p194
I319
sS'g_Luteococcus'
p195
I290
sS'f_Brucellaceae'
p196
I127
sS'g_Bartonella'
p197
I160
sS'g_Shimia'
p198
I235
sS'f_Rhodobacteraceae'
p199
I211
sS'f_Beutenbergiaceae'
p200
I260
sS'g_Thiomonas'
p201
I91
sS'c_Alphaproteobacteria'
p202
I125
sS'g_Planosporangium'
p203
I346
sS'g_Thiobacillus'
p204
I123
sS'f_Rhizobiales_incertae_sedis'
p205
I156
sS'f_Acidimicrobineae'
p206
I253
sS'g_Noviherbaspirillum'
p207
I56
sS'g_Kyrpidia'
p208
I40
sS'g_Taylorella'
p209
I77
sS'f_Xanthobacteraceae'
p210
I138
sS'g_Roseomonas'
p211
I189
sS'g_Pannonibacter'
p212
I237
sS'g_Vasilyevaea'
p213
I157
sS'g_Gluconacetobacter'
p214
I188
sS'f_Acidimicrobiaceae'
p215
I257
sS'f_Tsukamurellaceae'
p216
I309
sS'g_Promicromonospora'
p217
I282
sS'g_Chitinimonas'
p218
I98
sS'g_Nakamurella'
p219
I350
sS'g_Gemmobacter'
p220
I212
sS'f_Bacillaceae 2'
p221
I7
sS'f_Bacillaceae 1'
p222
I16
sS'f_Aurantimonadaceae'
p223
I163
sS'g_Rickettsia'
p224
I209
sS'g_Saliterribacillus'
p225
I11
sS'f_Sporichthyaceae'
p226
I262
sS'f_Bacillales_Incertae Sedis XI'
p227
I26
sS'g_Sphingobium'
p228
I184
sS'g_Tardiphaga'
p229
I155
sS'f_Alicyclobacillaceae'
p230
I39
sS'f_Microbacteriaceae'
p231
I326
sS'g_Friedmanniella'
p232
I291
sS'g_Kocuria'
p233
I300
sS'g_Actinomyces'
p234
I341
sS'o_Hydrogenophilales'
p235
I121
sS'f_Dietziaceae'
p236
I351
sS'g_Bhargavaea'
p237
I29
sS'g_Huaishuia'
p238
I223
sS'g_Sporolactobacillaceae_incertae_sedis'
p239
I45
sS'f_Kineosporiaceae'
p240
I315
sS'c_Actinobacteria'
p241
I251
sS'g_Beutenbergia'
p242
I261
sS'g_Methylocystis'
p243
I144
sS'f_Intrasporangiaceae'
p244
I317
sS'g_Micrococcus'
p245
I298
sS'g_Sphingorhabdus'
p246
I183
sS'g_Magnetococcus'
p247
I240
sS'g_Micromonospora'
p248
I345
sS'f_Methylobacteriaceae'
p249
I131
sS'g_Pelagibacterium'
p250
I168
sS'g_Cryobacterium'
p251
I334
sS'g_Herbiconiux'
p252
I330
sS'g_Janthinobacterium'
p253
I50
sS'g_Kurthia'
p254
I37
sS'g_Aquabacterium'
p255
I93
sS'f_Anaplasmataceae'
p256
I205
sS'f_Glycomycetaceae'
p257
I313
sS'f_Promicromonosporaceae'
p258
I279
sS'g_Thalassospira'
p259
I197
sS'f_Comamonadaceae'
p260
I59
sS'g_Actinopolyspora'
p261
I295
sS'g_Sulfitobacter'
p262
I228
sS'g_Rhodobacter'
p263
I220
sS'o_Burkholderiales'
p264
I48
sS'g_Laribacter'
p265
I116
sS'g_Ensifer'
p266
I136
sS'g_Glycomyces'
p267
I314
sS'g_Halolactibacillus'
p268
I15
sS'g_Caulobacter'
p269
I244
sS'o_Rhizobiales'
p270
I126
sS'g_Leucobacter'
p271
I337
sS'o_Rickettsiales'
p272
I204
sS'g_Polaromonas'
p273
I62
sS'f_Actinopolysporaceae'
p274
I294
sS'g_Methylobacillus'
p275
I105
sS'g_Oceanobacillus'
p276
I12
sS'g_Undibacterium'
p277
I57
sS'g_Hyphomicrobium'
p278
I166
sS'g_Brachymonas'
p279
I60
sS'f_Rhodobiaceae'
p280
I161
sS'f_Staphylococcaceae'
p281
I42
sS'g_Nocardioides'
p282
I270
sS'g_Variovorax'
p283
I64
sS'g_Methylobacterium'
p284
I132
sS'g_Ornithinibacillus'
p285
I9
sS'f_Methylophilaceae'
p286
I104
sS'g_Microlunatus'
p287
I292
sS'g_Novosphingobium'
p288
I181
sS'f_Rickettsiaceae'
p289
I208
sS'g_Dongia'
p290
I200
sS'g_Bosea'
p291
I154
sS'f_Burkholderiales_incertae_sedis'
p292
I90
sS'g_Oceanicola'
p293
I224
sS'f_Mycobacteriaceae'
p294
I284
sS'g_Erythrobacter'
p295
I175
sS'g_Azospirillum'
p296
I195
sS'g_Parasutterella'
p297
I89
sS'o_Magnetococcales'
p298
I238
sS'f_Beijerinckiaceae'
p299
I149
sS'g_Hyphomonas'
p300
I247
sS'g_Jiangella'
p301
I288
sS'g_Cellulomonas'
p302
I275
sS'g_Pseudovibrio'
p303
I217
sS'g_Pigmentiphaga'
p304
I85
sS'f_Sporolactobacillaceae'
p305
I44
sS'g_Blastococcus'
p306
I303
sS'g_Duganella'
p307
I51
sS'g_Ilumatobacter'
p308
I258
sS'f_Rhodospirillaceae'
p309
I194
sS'g_Solibacillus'
p310
I36
sS'f_Caulobacteraceae'
p311
I242
sS'g_Neisseria'
p312
I119
sS'g_Massilia'
p313
I53
sS'f_Sutterellaceae'
p314
I87
sS'g_Starkeya'
p315
I140
sS'g_Methylorosula'
p316
I150
sS'g_Alcaligenes'
p317
I80
sS'g_Diaphorobacter'
p318
I70
sS'g_Salinibacterium'
p319
I332
sS'g_Methylovorus'
p320
I107
sS'f_Actinomycetaceae'
p321
I339
sS'g_Derxia'
p322
I78
sS'g_Frigoribacterium'
p323
I338
sS'f_Bacillales_Incertae Sedis XII'
p324
I24
sS'f_Erythrobacteraceae'
p325
I174
sS'f_Paenibacillaceae 1'
p326
I3
sS'f_Hyphomicrobiaceae'
p327
I165
sS'g_Mycobacterium'
p328
I285
sS'g_Rhodopseudomonas'
p329
I153
sS'g_Glaciimonas'
p330
I55
sS'g_Ochrobactrum'
p331
I130
sS'f_Brevibacteriaceae'
p332
I305
sS'g_Phaeobacter'
p333
I230
sS'g_Aureimonas'
p334
I164
sS'g_Brevibacterium'
p335
I306
sS'g_Isoptericola'
p336
I280
sS'g_Actinopolymorpha'
p337
I272
sS'f_Nocardioidaceae'
p338
I269
sS'g_Tetrasphaera'
p339
I321
sS'g_Ralstonia'
p340
I96
sS'g_Devosia'
p341
I169
sS'f_Rhizobiaceae'
p342
I135
sS'g_Sporichthya'
p343
I263
sS'f_Sphingomonadaceae'
p344
I178
sS'f_Burkholderiaceae'
p345
I95
sS'g_Gluconobacter'
p346
I192
sS'g_Terasakiella'
p347
I143
sS'g_Corynebacterium'
p348
I278
sS'g_Aciditerrimonas'
p349
I254
sS'g_Listeria'
p350
I22
sS'g_Xanthobacter'
p351
I141
sS'g_Loktanella'
p352
I229
sS'g_Thiobacter'
p353
I94
sS'g_Herbaspirillum'
p354
I52
s.